; Function Attrs: mustprogress uwtable
define noundef ptr @Z3_mk_quantifier(ptr noundef %c, i1 noundef zeroext %is_forall, i32 noundef %weight, i32 noundef %num_patterns, ptr noundef %patterns, i32 noundef %num_decls, ptr noundef %sorts, ptr noundef %decl_names, ptr noundef %body) local_unnamed_addr #3 personality ptr @__gxx_personality_v0 {
entry:
  %agg.tmp.sroa.0.0.copyload = load ptr, ptr @_ZN6symbol4nullE, align 8
  %0 = atomicrmw xchg ptr @g_z3_log_enabled, i8 0 seq_cst, align 1
  %1 = and i8 %0, 1
  %tobool.i.not.i = icmp eq i8 %1, 0
  br i1 %tobool.i.not.i, label %if.end.i, label %if.then.i

if.then.i:                                        ; preds = %entry
  invoke void @_Z23log_Z3_mk_quantifier_exP11_Z3_contextbjP10_Z3_symbolS2_jPKP11_Z3_patternjPKP7_Z3_astjPKP8_Z3_sortPKS2_S8_(ptr noundef %c, i1 noundef zeroext %is_forall, i32 noundef %weight, ptr noundef %agg.tmp.sroa.0.0.copyload, ptr noundef %agg.tmp.sroa.0.0.copyload, i32 noundef %num_patterns, ptr noundef %patterns, i32 noundef 0, ptr noundef null, i32 noundef %num_decls, ptr noundef %sorts, ptr noundef %decl_names, ptr noundef %body)
          to label %if.end.i unwind label %lpad.thread.i

lpad.thread.i:                                    ; preds = %if.then7.i, %if.then.i
  %lpad.thr_comm22.i = landingpad { ptr, i32 }
          cleanup
  br label %if.then.i.i

lpad.i:                                           ; preds = %if.end.i
  %lpad.thr_comm.split-lp23.i = landingpad { ptr, i32 }
          cleanup
  br i1 %tobool.i.not.i, label %_ZN10z3_log_ctxD2Ev.exit.i, label %if.then.i.i

if.then.i.i:                                      ; preds = %lpad.i, %lpad.thread.i
  %lpad.phi26.i = phi { ptr, i32 } [ %lpad.thr_comm22.i, %lpad.thread.i ], [ %lpad.thr_comm.split-lp23.i, %lpad.i ]
  store atomic i8 1, ptr @g_z3_log_enabled seq_cst, align 1
  br label %_ZN10z3_log_ctxD2Ev.exit.i

_ZN10z3_log_ctxD2Ev.exit.i:                       ; preds = %if.then.i.i, %lpad.i
  %lpad.phi27.i = phi { ptr, i32 } [ %lpad.thr_comm.split-lp23.i, %lpad.i ], [ %lpad.phi26.i, %if.then.i.i ]
  resume { ptr, i32 } %lpad.phi27.i

if.end.i:                                         ; preds = %if.then.i, %entry
  %call4.i = invoke ptr @mk_quantifier_ex_core(ptr noundef %c, i1 noundef zeroext %is_forall, i32 noundef %weight, ptr noundef %agg.tmp.sroa.0.0.copyload, ptr noundef %agg.tmp.sroa.0.0.copyload, i32 noundef %num_patterns, ptr noundef %patterns, i32 noundef 0, ptr noundef null, i32 noundef %num_decls, ptr noundef %sorts, ptr noundef %decl_names, ptr noundef %body)
          to label %invoke.cont3.i unwind label %lpad.i

invoke.cont3.i:                                   ; preds = %if.end.i
  br i1 %tobool.i.not.i, label %Z3_mk_quantifier_ex.exit, label %if.then7.i

if.then7.i:                                       ; preds = %invoke.cont3.i
  invoke void @_Z4SetRPv(ptr noundef %call4.i)
          to label %if.then.i17.i unwind label %lpad.thread.i

if.then.i17.i:                                    ; preds = %if.then7.i
  store atomic i8 1, ptr @g_z3_log_enabled seq_cst, align 1
  br label %Z3_mk_quantifier_ex.exit

Z3_mk_quantifier_ex.exit:                         ; preds = %invoke.cont3.i, %if.then.i17.i
  ret ptr %call4.i
}